target datalayout = "e-m:e-p270:32:32-p271:32:32-p272:64:64-i64:64-i128:128-f80:128-n8:16:32:64-S128"
target triple = "x86_64-pc-linux-gnu"

%struct.lua_TValue = type { %union.Value, [1 x i32], i32 }
%union.Value = type { ptr }
%struct.TString = type { i8, i8, i8, i16, ptr, i32, i32, [1 x i8] }

; Function Attrs: mustprogress uwtable
define internal noundef i32 @_ZL14luauF_tonumberP9lua_StateP10lua_TValueS2_iS2_i(ptr noundef %0, ptr noundef %1, ptr noundef %2, i32 noundef %3, ptr noundef %4, i32 noundef %5) #3 {
  %7 = alloca i32, align 4
  %8 = alloca ptr, align 8
  %9 = alloca ptr, align 8
  %10 = alloca ptr, align 8
  %11 = alloca i32, align 4
  %12 = alloca ptr, align 8
  %13 = alloca i32, align 4
  %14 = alloca double, align 8
  %15 = alloca ptr, align 8
  %16 = alloca i32, align 4
  %17 = alloca ptr, align 8
  store ptr %0, ptr %8, align 8, !tbaa !4
  store ptr %1, ptr %9, align 8, !tbaa !9
  store ptr %2, ptr %10, align 8, !tbaa !9
  store i32 %3, ptr %11, align 4, !tbaa !11
  store ptr %4, ptr %12, align 8, !tbaa !9
  store i32 %5, ptr %13, align 4, !tbaa !11
  %18 = load i32, ptr %13, align 4, !tbaa !11
  %19 = icmp eq i32 %18, 1
  br i1 %19, label %20, label %61

20:                                               ; preds = %6
  %21 = load i32, ptr %11, align 4, !tbaa !11
  %22 = icmp sle i32 %21, 1
  br i1 %22, label %23, label %61

23:                                               ; preds = %20
  call void @llvm.lifetime.start.p0(i64 8, ptr %14) #17
  %24 = load ptr, ptr %10, align 8, !tbaa !9
  %25 = getelementptr inbounds nuw %struct.lua_TValue, ptr %24, i32 0, i32 2
  %26 = load i32, ptr %25, align 4, !tbaa !13
  %27 = icmp eq i32 %26, 3
  br i1 %27, label %28, label %37

28:                                               ; preds = %23
  call void @llvm.lifetime.start.p0(i64 8, ptr %15) #17
  %29 = load ptr, ptr %9, align 8, !tbaa !9
  store ptr %29, ptr %15, align 8, !tbaa !9
  %30 = load ptr, ptr %10, align 8, !tbaa !9
  %31 = getelementptr inbounds nuw %struct.lua_TValue, ptr %30, i32 0, i32 0
  %32 = load double, ptr %31, align 8, !tbaa !15
  %33 = load ptr, ptr %15, align 8, !tbaa !9
  %34 = getelementptr inbounds nuw %struct.lua_TValue, ptr %33, i32 0, i32 0
  store double %32, ptr %34, align 8, !tbaa !15
  %35 = load ptr, ptr %15, align 8, !tbaa !9
  %36 = getelementptr inbounds nuw %struct.lua_TValue, ptr %35, i32 0, i32 2
  store i32 3, ptr %36, align 4, !tbaa !13
  call void @llvm.lifetime.end.p0(i64 8, ptr %15) #17
  store i32 1, ptr %7, align 4
  store i32 1, ptr %16, align 4
  br label %60

37:                                               ; preds = %23
  %38 = load ptr, ptr %10, align 8, !tbaa !9
  %39 = getelementptr inbounds nuw %struct.lua_TValue, ptr %38, i32 0, i32 2
  %40 = load i32, ptr %39, align 4, !tbaa !13
  %41 = icmp eq i32 %40, 5
  br i1 %41, label %42, label %57

42:                                               ; preds = %37
  %43 = load ptr, ptr %10, align 8, !tbaa !9
  %44 = getelementptr inbounds nuw %struct.lua_TValue, ptr %43, i32 0, i32 0
  %45 = load ptr, ptr %44, align 8, !tbaa !15
  %46 = getelementptr inbounds nuw %struct.TString, ptr %45, i32 0, i32 7
  %47 = getelementptr inbounds [1 x i8], ptr %46, i64 0, i64 0
  %48 = call noundef i32 @_Z10luaO_str2dPKcPd(ptr noundef %47, ptr noundef %14)
  %49 = icmp ne i32 %48, 0
  br i1 %49, label %50, label %57

50:                                               ; preds = %42
  call void @llvm.lifetime.start.p0(i64 8, ptr %17) #17
  %51 = load ptr, ptr %9, align 8, !tbaa !9
  store ptr %51, ptr %17, align 8, !tbaa !9
  %52 = load double, ptr %14, align 8, !tbaa !16
  %53 = load ptr, ptr %17, align 8, !tbaa !9
  %54 = getelementptr inbounds nuw %struct.lua_TValue, ptr %53, i32 0, i32 0
  store double %52, ptr %54, align 8, !tbaa !15
  %55 = load ptr, ptr %17, align 8, !tbaa !9
  %56 = getelementptr inbounds nuw %struct.lua_TValue, ptr %55, i32 0, i32 2
  store i32 3, ptr %56, align 4, !tbaa !13
  call void @llvm.lifetime.end.p0(i64 8, ptr %17) #17
  store i32 1, ptr %7, align 4
  store i32 1, ptr %16, align 4
  br label %60

57:                                               ; preds = %42, %37
  %58 = load ptr, ptr %9, align 8, !tbaa !9
  %59 = getelementptr inbounds nuw %struct.lua_TValue, ptr %58, i32 0, i32 2
  store i32 0, ptr %59, align 4, !tbaa !13
  store i32 1, ptr %7, align 4
  store i32 1, ptr %16, align 4
  br label %60

60:                                               ; preds = %57, %50, %28
  call void @llvm.lifetime.end.p0(i64 8, ptr %14) #17
  br label %62

61:                                               ; preds = %20, %6
  store i32 -1, ptr %7, align 4
  br label %62

62:                                               ; preds = %61, %60
  %63 = load i32, ptr %7, align 4
  ret i32 %63
}