; Function Attrs: mustprogress uwtable
define internal noundef range(i32 -1, 2) i32 @_ZL14luauF_tonumberP9lua_StateP10lua_TValueS2_iS2_i(ptr readnone captures(none) %0, ptr noundef writeonly captures(none) %1, ptr noundef readonly captures(none) %2, i32 noundef %3, ptr readnone captures(none) %4, i32 noundef %5) #8 {
  %7 = alloca double, align 8
  %8 = icmp eq i32 %5, 1
  %9 = icmp slt i32 %3, 2
  %or.cond = and i1 %9, %8
  br i1 %or.cond, label %10, label %20

10:                                               ; preds = %6
  call void @llvm.lifetime.start.p0(i64 8, ptr nonnull %7) #21
  %11 = getelementptr inbounds nuw i8, ptr %2, i64 12
  %12 = load i32, ptr %11, align 4, !tbaa !4
  switch i32 %12, label %18 [
    i32 3, label %.sink.split
    i32 5, label %13
  ]

13:                                               ; preds = %10
  %14 = load ptr, ptr %2, align 8, !tbaa !9
  %15 = getelementptr inbounds nuw i8, ptr %14, i64 24
  %16 = call noundef i32 @_Z10luaO_str2dPKcPd(ptr noundef nonnull %15, ptr noundef nonnull %7)
  %.not = icmp eq i32 %16, 0
  br i1 %.not, label %18, label %.sink.split

.sink.split:                                      ; preds = %13, %10
  %.sink16 = phi ptr [ %2, %10 ], [ %7, %13 ]
  %17 = load double, ptr %.sink16, align 8, !tbaa !9
  store double %17, ptr %1, align 8, !tbaa !9
  br label %18

18:                                               ; preds = %.sink.split, %13, %10
  %.sink = phi i32 [ 0, %10 ], [ 0, %13 ], [ 3, %.sink.split ]
  %19 = getelementptr inbounds nuw i8, ptr %1, i64 12
  store i32 %.sink, ptr %19, align 4, !tbaa !4
  call void @llvm.lifetime.end.p0(i64 8, ptr nonnull %7) #21
  br label %20

20:                                               ; preds = %6, %18
  %.1 = phi i32 [ 1, %18 ], [ -1, %6 ]
  ret i32 %.1
}